((lp1
S'http://wallpapers.wallbase.cc/rozne/wallpaper-2983460.jpg'
p2
aS'http://wallpapers.wallbase.cc/rozne/wallpaper-888661.jpg'
p3
aS'http://wallpapers.wallbase.cc/high-resolution/wallpaper-161642.jpg'
p4
aS'http://wallpapers.wallbase.cc/rozne/wallpaper-1776568.jpg'
p5
aS'http://wallpapers.wallbase.cc/rozne/wallpaper-2628966.jpg'
p6
aS'http://wallpapers.wallbase.cc/rozne/wallpaper-1419381.jpg'
p7
aS'http://wallpapers.wallbase.cc/rozne/wallpaper-2954404.jpg'
p8
aS'http://wallpapers.wallbase.cc/rozne/wallpaper-2850835.jpg'
p9
aS'http://wallpapers.wallbase.cc/rozne/wallpaper-2090950.jpg'
p10
aS'http://wallpapers.wallbase.cc/rozne/wallpaper-2643227.jpg'
p11
aS'http://wallpapers.wallbase.cc/rozne/wallpaper-2230428.jpg'
p12
aS'http://wallpapers.wallbase.cc/high-resolution/wallpaper-3032857.jpg'
p13
aS'http://wallpapers.wallbase.cc/rozne/wallpaper-2365673.jpg'
p14
aS'http://wallpapers.wallbase.cc/rozne/wallpaper-2649517.jpg'
p15
aS'http://wallpapers.wallbase.cc/rozne/wallpaper-2844491.jpg'
p16
aS'http://wallpapers.wallbase.cc/rozne/wallpaper-1487217.jpg'
p17
aS'http://wallpapers.wallbase.cc/rozne/wallpaper-2938662.jpg'
p18
aS'http://wallpapers.wallbase.cc/rozne/wallpaper-1640486.jpg'
p19
aS'http://wallpapers.wallbase.cc/rozne/wallpaper-2090952.jpg'
p20
aS'http://wallpapers.wallbase.cc/rozne/wallpaper-2702093.jpg'
p21
aS'http://wallpapers.wallbase.cc/rozne/wallpaper-1569597.jpg'
p22
aS'http://wallpapers.wallbase.cc/rozne/wallpaper-625609.jpg'
p23
aS'http://wallpapers.wallbase.cc/high-resolution/wallpaper-2827253.jpg'
p24
aS'http://wallpapers.wallbase.cc/rozne/wallpaper-1605427.jpg'
p25
aS'http://wallpapers.wallbase.cc/rozne/wallpaper-1877098.jpg'
p26
aS'http://wallpapers.wallbase.cc/rozne/wallpaper-598071.jpg'
p27
aS'http://wallpapers.wallbase.cc/rozne/wallpaper-2416641.jpg'
p28
aS'http://wallpapers.wallbase.cc/rozne/wallpaper-2171243.jpg'
p29
aS'http://wallpapers.wallbase.cc/rozne/wallpaper-2729184.jpg'
p30
aS'http://wallpapers.wallbase.cc/rozne/wallpaper-3026632.jpg'
p31
aS'http://wallpapers.wallbase.cc/high-resolution/wallpaper-1009031.jpg'
p32
aS'http://wallpapers.wallbase.cc/rozne/wallpaper-411897.jpg'
p33
aS'http://wallpapers.wallbase.cc/rozne/wallpaper-1569594.jpg'
p34
aS'http://wallpapers.wallbase.cc/rozne/wallpaper-3032686.jpg'
p35
aS'http://wallpapers.wallbase.cc/rozne/wallpaper-75905.jpg'
p36
aS'http://wallpapers.wallbase.cc/high-resolution/wallpaper-1377168.jpg'
p37
aS'http://wallpapers.wallbase.cc/manga-anime/wallpaper-2802617.jpg'
p38
aS'http://wallpapers.wallbase.cc/rozne/wallpaper-740236.jpg'
p39
aS'http://wallpapers.wallbase.cc/rozne/wallpaper-2850452.jpg'
p40
aS'http://wallpapers.wallbase.cc/rozne/wallpaper-2761116.jpg'
p41
aS'http://wallpapers.wallbase.cc/rozne/wallpaper-579074.jpg'
p42
aS'http://wallpapers.wallbase.cc/high-resolution/wallpaper-875821.jpg'
p43
aS'http://wallpapers.wallbase.cc/rozne/wallpaper-1566158.jpg'
p44
aS'http://wallpapers.wallbase.cc/rozne/wallpaper-87250.jpg'
p45
aS'http://wallpapers.wallbase.cc/rozne/wallpaper-3032583.jpg'
p46
aS'http://wallpapers.wallbase.cc/high-resolution/wallpaper-3032940.jpg'
p47
aS'http://wallpapers.wallbase.cc/rozne/wallpaper-2902655.jpg'
p48
aS'http://wallpapers.wallbase.cc/high-resolution/wallpaper-3032654.jpg'
p49
aS'http://wallpapers.wallbase.cc/rozne/wallpaper-3031724.jpg'
p50
aS'http://wallpapers.wallbase.cc/rozne/wallpaper-617183.jpg'
p51
aS'http://wallpapers.wallbase.cc/rozne/wallpaper-183407.jpg'
p52
aS'http://wallpapers.wallbase.cc/rozne/wallpaper-233007.jpg'
p53
aS'http://wallpapers.wallbase.cc/rozne/wallpaper-1149922.jpg'
p54
aS'http://wallpapers.wallbase.cc/rozne/wallpaper-1736321.jpg'
p55
aS'http://wallpapers.wallbase.cc/high-resolution/wallpaper-231552.jpg'
p56
aS'http://wallpapers.wallbase.cc/rozne/wallpaper-2598023.jpg'
p57
aS'http://wallpapers.wallbase.cc/rozne/wallpaper-2944920.jpg'
p58
aS'http://wallpapers.wallbase.cc/high-resolution/wallpaper-170410.jpg'
p59
aS'http://wallpapers.wallbase.cc/high-resolution/wallpaper-2941095.jpg'
p60
aS'http://wallpapers.wallbase.cc/rozne/wallpaper-1569595.jpg'
p61
aS'http://wallpapers.wallbase.cc/high-resolution/wallpaper-1511832.jpg'
p62
aS'http://wallpapers.wallbase.cc/rozne/wallpaper-2931513.jpg'
p63
aS'http://wallpapers.wallbase.cc/high-resolution/wallpaper-10772.jpg'
p64
aS'http://wallpapers.wallbase.cc/rozne/wallpaper-551092.jpg'
p65
aS'http://wallpapers.wallbase.cc/rozne/wallpaper-1436835.jpg'
p66
aS'http://wallpapers.wallbase.cc/rozne/wallpaper-2902656.jpg'
p67
aS'http://wallpapers.wallbase.cc/high-resolution/wallpaper-609080.jpg'
p68
aS'http://wallpapers.wallbase.cc/manga-anime/wallpaper-1873576.jpg'
p69
aS'http://wallpapers.wallbase.cc/rozne/wallpaper-1933710.jpg'
p70
aS'http://wallpapers.wallbase.cc/rozne/wallpaper-2269773.jpg'
p71
aS'http://wallpapers.wallbase.cc/manga-anime/wallpaper-16823.jpg'
p72
aS'http://wallpapers.wallbase.cc/rozne/wallpaper-116648.jpg'
p73
aS'http://wallpapers.wallbase.cc/high-resolution/wallpaper-2274805.jpg'
p74
aS'http://wallpapers.wallbase.cc/rozne/wallpaper-684036.jpg'
p75
aS'http://wallpapers.wallbase.cc/rozne/wallpaper-129580.jpg'
p76
aS'http://wallpapers.wallbase.cc/rozne/wallpaper-2581220.jpg'
p77
aS'http://wallpapers.wallbase.cc/rozne/wallpaper-692369.jpg'
p78
aS'http://wallpapers.wallbase.cc/rozne/wallpaper-2612918.jpg'
p79
aS'http://wallpapers.wallbase.cc/manga-anime/wallpaper-1535346.jpg'
p80
aS'http://wallpapers.wallbase.cc/rozne/wallpaper-1735004.jpg'
p81
aS'http://wallpapers.wallbase.cc/high-resolution/wallpaper-2085835.jpg'
p82
aS'http://wallpapers.wallbase.cc/rozne/wallpaper-931589.jpg'
p83
aS'http://wallpapers.wallbase.cc/high-resolution/wallpaper-716625.jpg'
p84
aS'http://wallpapers.wallbase.cc/rozne/wallpaper-2469479.jpg'
p85
aS'http://wallpapers.wallbase.cc/rozne/wallpaper-1987461.jpg'
p86
aS'http://wallpapers.wallbase.cc/rozne/wallpaper-2249358.jpg'
p87
aS'http://wallpapers.wallbase.cc/rozne/wallpaper-2832245.jpg'
p88
aS'http://wallpapers.wallbase.cc/rozne/wallpaper-3027374.jpg'
p89
aS'http://wallpapers.wallbase.cc/rozne/wallpaper-2950574.jpg'
p90
aS'http://wallpapers.wallbase.cc/high-resolution/wallpaper-474180.jpg'
p91
aS'http://wallpapers.wallbase.cc/rozne/wallpaper-368846.jpg'
p92
aS'http://wallpapers.wallbase.cc/high-resolution/wallpaper-168895.jpg'
p93
aS'http://wallpapers.wallbase.cc/high-resolution/wallpaper-258327.jpg'
p94
aS'http://wallpapers.wallbase.cc/rozne/wallpaper-3032942.jpg'
p95
aS'http://wallpapers.wallbase.cc/high-resolution/wallpaper-411908.jpg'
p96
aS'http://wallpapers.wallbase.cc/manga-anime/wallpaper-356307.jpg'
p97
aS'http://wallpapers.wallbase.cc/high-resolution/wallpaper-3032908.jpg'
p98
aS'http://wallpapers.wallbase.cc/rozne/wallpaper-526591.jpg'
p99
aS'http://wallpapers.wallbase.cc/rozne/wallpaper-3032685.jpg'
p100
aS'http://wallpapers.wallbase.cc/rozne/wallpaper-1683217.jpg'
p101
aS'http://wallpapers.wallbase.cc/rozne/wallpaper-1804460.jpg'
p102
aS'http://wallpapers.wallbase.cc/rozne/wallpaper-1712825.jpg'
p103
aS'http://wallpapers.wallbase.cc/rozne/wallpaper-2449425.jpg'
p104
aS'http://wallpapers.wallbase.cc/rozne/wallpaper-1130562.jpg'
p105
aS'http://wallpapers.wallbase.cc/rozne/wallpaper-2933943.jpg'
p106
aS'http://wallpapers.wallbase.cc/rozne/wallpaper-2259683.jpg'
p107
aS'http://wallpapers.wallbase.cc/rozne/wallpaper-434857.jpg'
p108
aS'http://wallpapers.wallbase.cc/rozne/wallpaper-131801.jpg'
p109
aS'http://wallpapers.wallbase.cc/manga-anime/wallpaper-1111969.jpg'
p110
aS'http://wallpapers.wallbase.cc/high-resolution/wallpaper-335973.jpg'
p111
aS'http://wallpapers.wallbase.cc/rozne/wallpaper-2013332.jpg'
p112
aS'http://wallpapers.wallbase.cc/high-resolution/wallpaper-337283.jpg'
p113
aS'http://wallpapers.wallbase.cc/high-resolution/wallpaper-3032858.jpg'
p114
aS'http://wallpapers.wallbase.cc/high-resolution/wallpaper-1469629.jpg'
p115
aS'http://wallpapers.wallbase.cc/rozne/wallpaper-2711598.jpg'
p116
aS'http://wallpapers.wallbase.cc/rozne/wallpaper-2850469.jpg'
p117
aS'http://wallpapers.wallbase.cc/high-resolution/wallpaper-2184707.jpg'
p118
aS'http://wallpapers.wallbase.cc/rozne/wallpaper-591392.jpg'
p119
aS'http://wallpapers.wallbase.cc/rozne/wallpaper-2850832.jpg'
p120
aS'http://wallpapers.wallbase.cc/rozne/wallpaper-3008473.jpg'
p121
aS'http://wallpapers.wallbase.cc/rozne/wallpaper-635430.jpg'
p122
aS'http://wallpapers.wallbase.cc/rozne/wallpaper-2069045.jpg'
p123
aS'http://wallpapers.wallbase.cc/rozne/wallpaper-174545.jpg'
p124
aS'http://wallpapers.wallbase.cc/rozne/wallpaper-417161.jpg'
p125
aS'http://wallpapers.wallbase.cc/rozne/wallpaper-2990000.jpg'
p126
aS'http://wallpapers.wallbase.cc/high-resolution/wallpaper-387661.jpg'
p127
aS'http://wallpapers.wallbase.cc/rozne/wallpaper-2976481.jpg'
p128
aS'http://wallpapers.wallbase.cc/rozne/wallpaper-280020.jpg'
p129
aS'http://wallpapers.wallbase.cc/rozne/wallpaper-461408.jpg'
p130
aS'http://wallpapers.wallbase.cc/rozne/wallpaper-164102.jpg'
p131
aS'http://wallpapers.wallbase.cc/high-resolution/wallpaper-660472.jpg'
p132
aS'http://wallpapers.wallbase.cc/rozne/wallpaper-828069.jpg'
p133
aS'http://wallpapers.wallbase.cc/high-resolution/wallpaper-2859017.jpg'
p134
aS'http://wallpapers.wallbase.cc/manga-anime/wallpaper-962104.jpg'
p135
aS'http://wallpapers.wallbase.cc/rozne/wallpaper-23561.jpg'
p136
aS'http://wallpapers.wallbase.cc/high-resolution/wallpaper-1485746.jpg'
p137
aS'http://wallpapers.wallbase.cc/rozne/wallpaper-2789540.jpg'
p138
aS'http://wallpapers.wallbase.cc/rozne/wallpaper-3032683.jpg'
p139
aS'http://wallpapers.wallbase.cc/rozne/wallpaper-1842566.jpg'
p140
aS'http://wallpapers.wallbase.cc/high-resolution/wallpaper-231553.jpg'
p141
aS'http://wallpapers.wallbase.cc/high-resolution/wallpaper-889052.jpg'
p142
aS'http://wallpapers.wallbase.cc/rozne/wallpaper-2804346.jpg'
p143
aS'http://wallpapers.wallbase.cc/high-resolution/wallpaper-474200.jpg'
p144
aS'http://wallpapers.wallbase.cc/manga-anime/wallpaper-2802612.jpg'
p145
aS'http://wallpapers.wallbase.cc/rozne/wallpaper-692129.jpg'
p146
aS'http://wallpapers.wallbase.cc/high-resolution/wallpaper-2996001.jpg'
p147
aS'http://wallpapers.wallbase.cc/manga-anime/wallpaper-466499.jpg'
p148
aS'http://wallpapers.wallbase.cc/rozne/wallpaper-338139.jpg'
p149
aS'http://wallpapers.wallbase.cc/high-resolution/wallpaper-2523567.jpg'
p150
aS'http://wallpapers.wallbase.cc/manga-anime/wallpaper-449974.jpg'
p151
aS'http://wallpapers.wallbase.cc/rozne/wallpaper-2138793.jpg'
p152
aS'http://wallpapers.wallbase.cc/rozne/wallpaper-2201541.jpg'
p153
aS'http://wallpapers.wallbase.cc/rozne/wallpaper-3032684.jpg'
p154
aS'http://wallpapers.wallbase.cc/rozne/wallpaper-1823027.jpg'
p155
aS'http://wallpapers.wallbase.cc/rozne/wallpaper-3030342.jpg'
p156
aS'http://wallpapers.wallbase.cc/high-resolution/wallpaper-233547.jpg'
p157
aS'http://wallpapers.wallbase.cc/high-resolution/wallpaper-1876536.jpg'
p158
aS'http://wallpapers.wallbase.cc/manga-anime/wallpaper-622280.jpg'
p159
aS'http://wallpapers.wallbase.cc/rozne/wallpaper-1247676.jpg'
p160
aS'http://wallpapers.wallbase.cc/rozne/wallpaper-3032751.jpg'
p161
aS'http://wallpapers.wallbase.cc/rozne/wallpaper-169028.jpg'
p162
aS'http://wallpapers.wallbase.cc/high-resolution/wallpaper-175224.jpg'
p163
aS'http://wallpapers.wallbase.cc/rozne/wallpaper-175502.jpg'
p164
aS'http://wallpapers.wallbase.cc/rozne/wallpaper-1727209.jpg'
p165
aS'http://wallpapers.wallbase.cc/high-resolution/wallpaper-3032844.jpg'
p166
aS'http://wallpapers.wallbase.cc/manga-anime/wallpaper-474812.jpg'
p167
aS'http://wallpapers.wallbase.cc/rozne/wallpaper-3011439.jpg'
p168
aS'http://wallpapers.wallbase.cc/manga-anime/wallpaper-1233072.jpg'
p169
aS'http://wallpapers.wallbase.cc/rozne/wallpaper-172024.jpg'
p170
aS'http://wallpapers.wallbase.cc/rozne/wallpaper-2990013.jpg'
p171
aS'http://wallpapers.wallbase.cc/rozne/wallpaper-253588.jpg'
p172
aS'http://wallpapers.wallbase.cc/manga-anime/wallpaper-1487264.jpg'
p173
aS'http://wallpapers.wallbase.cc/rozne/wallpaper-2605164.jpg'
p174
aS'http://wallpapers.wallbase.cc/high-resolution/wallpaper-484974.jpg'
p175
aS'http://wallpapers.wallbase.cc/manga-anime/wallpaper-3031940.jpg'
p176
aS'http://wallpapers.wallbase.cc/rozne/wallpaper-1019263.jpg'
p177
aS'http://wallpapers.wallbase.cc/manga-anime/wallpaper-2216662.jpg'
p178
aS'http://wallpapers.wallbase.cc/high-resolution/wallpaper-2752856.jpg'
p179
aS'http://wallpapers.wallbase.cc/rozne/wallpaper-3013537.jpg'
p180
aS'http://wallpapers.wallbase.cc/high-resolution/wallpaper-371819.jpg'
p181
aS'http://wallpapers.wallbase.cc/rozne/wallpaper-572871.jpg'
p182
aS'http://wallpapers.wallbase.cc/high-resolution/wallpaper-358675.jpg'
p183
aS'http://wallpapers.wallbase.cc/high-resolution/wallpaper-430068.jpg'
p184
aS'http://wallpapers.wallbase.cc/rozne/wallpaper-511873.jpg'
p185
aS'http://wallpapers.wallbase.cc/rozne/wallpaper-2507226.jpg'
p186
aS'http://wallpapers.wallbase.cc/rozne/wallpaper-3032849.jpg'
p187
aS'http://wallpapers.wallbase.cc/high-resolution/wallpaper-407681.jpg'
p188
aS'http://wallpapers.wallbase.cc/rozne/wallpaper-164801.jpg'
p189
aS'http://wallpapers.wallbase.cc/rozne/wallpaper-1987948.jpg'
p190
aS'http://wallpapers.wallbase.cc/high-resolution/wallpaper-2078406.jpg'
p191
aS'http://wallpapers.wallbase.cc/manga-anime/wallpaper-2830563.jpg'
p192
aS'http://wallpapers.wallbase.cc/rozne/wallpaper-2961126.jpg'
p193
aS'http://wallpapers.wallbase.cc/rozne/wallpaper-912188.jpg'
p194
aS'http://wallpapers.wallbase.cc/rozne/wallpaper-2746589.jpg'
p195
aS'http://wallpapers.wallbase.cc/high-resolution/wallpaper-3032579.jpg'
p196
aS'http://wallpapers.wallbase.cc/high-resolution/wallpaper-298224.jpg'
p197
aS'http://wallpapers.wallbase.cc/rozne/wallpaper-2220851.jpg'
p198
aS'http://wallpapers.wallbase.cc/high-resolution/wallpaper-119325.jpg'
p199
aS'http://wallpapers.wallbase.cc/rozne/wallpaper-1903329.jpg'
p200
aS'http://wallpapers.wallbase.cc/rozne/wallpaper-2958836.jpg'
p201
aS'http://wallpapers.wallbase.cc/high-resolution/wallpaper-2991482.jpg'
p202
aS'http://wallpapers.wallbase.cc/rozne/wallpaper-420189.jpg'
p203
aS'http://wallpapers.wallbase.cc/high-resolution/wallpaper-181775.jpg'
p204
aS'http://wallpapers.wallbase.cc/high-resolution/wallpaper-287348.jpg'
p205
aS'http://wallpapers.wallbase.cc/high-resolution/wallpaper-337251.jpg'
p206
aS'http://wallpapers.wallbase.cc/rozne/wallpaper-2706990.jpg'
p207
aS'http://wallpapers.wallbase.cc/manga-anime/wallpaper-2719069.jpg'
p208
aS'http://wallpapers.wallbase.cc/rozne/wallpaper-2914534.jpg'
p209
aS'http://wallpapers.wallbase.cc/rozne/wallpaper-2050491.jpg'
p210
aS'http://wallpapers.wallbase.cc/rozne/wallpaper-255075.jpg'
p211
aS'http://wallpapers.wallbase.cc/high-resolution/wallpaper-435693.jpg'
p212
aS'http://wallpapers.wallbase.cc/rozne/wallpaper-711625.jpg'
p213
aS'http://wallpapers.wallbase.cc/rozne/wallpaper-936828.jpg'
p214
aS'http://wallpapers.wallbase.cc/manga-anime/wallpaper-494509.jpg'
p215
aS'http://wallpapers.wallbase.cc/high-resolution/wallpaper-593486.jpg'
p216
aS'http://wallpapers.wallbase.cc/rozne/wallpaper-936843.jpg'
p217
aS'http://wallpapers.wallbase.cc/high-resolution/wallpaper-3024852.jpg'
p218
aS'http://wallpapers.wallbase.cc/rozne/wallpaper-3032423.jpg'
p219
aS'http://wallpapers.wallbase.cc/high-resolution/wallpaper-641419.jpg'
p220
aS'http://wallpapers.wallbase.cc/manga-anime/wallpaper-814160.jpg'
p221
aS'http://wallpapers.wallbase.cc/manga-anime/wallpaper-1138292.jpg'
p222
aS'http://wallpapers.wallbase.cc/high-resolution/wallpaper-1238866.jpg'
p223
aS'http://wallpapers.wallbase.cc/rozne/wallpaper-2091721.jpg'
p224
aS'http://wallpapers.wallbase.cc/manga-anime/wallpaper-2791121.jpg'
p225
aS'http://wallpapers.wallbase.cc/manga-anime/wallpaper-3032485.jpg'
p226
aS'http://wallpapers.wallbase.cc/high-resolution/wallpaper-3032734.jpg'
p227
aS'http://wallpapers.wallbase.cc/manga-anime/wallpaper-174750.jpg'
p228
aS'http://wallpapers.wallbase.cc/high-resolution/wallpaper-2462829.jpg'
p229
aS'http://wallpapers.wallbase.cc/rozne/wallpaper-2478394.jpg'
p230
aS'http://wallpapers.wallbase.cc/high-resolution/wallpaper-491929.jpg'
p231
aS'http://wallpapers.wallbase.cc/rozne/wallpaper-608369.jpg'
p232
aS'http://wallpapers.wallbase.cc/manga-anime/wallpaper-1627594.jpg'
p233
aS'http://wallpapers.wallbase.cc/rozne/wallpaper-163912.jpg'
p234
aS'http://wallpapers.wallbase.cc/rozne/wallpaper-783967.jpg'
p235
aS'http://wallpapers.wallbase.cc/manga-anime/wallpaper-1274717.jpg'
p236
aS'http://wallpapers.wallbase.cc/rozne/wallpaper-1379744.jpg'
p237
aS'http://wallpapers.wallbase.cc/rozne/wallpaper-2187992.jpg'
p238
aS'http://wallpapers.wallbase.cc/high-resolution/wallpaper-2799150.jpg'
p239
aS'http://wallpapers.wallbase.cc/rozne/wallpaper-2940442.jpg'
p240
aS'http://wallpapers.wallbase.cc/rozne/wallpaper-2589723.jpg'
p241
aS'http://wallpapers.wallbase.cc/rozne/wallpaper-2941587.jpg'
p242
aS'http://wallpapers.wallbase.cc/rozne/wallpaper-283152.jpg'
p243
aS'http://wallpapers.wallbase.cc/rozne/wallpaper-432504.jpg'
p244
aS'http://wallpapers.wallbase.cc/rozne/wallpaper-597674.jpg'
p245
aS'http://wallpapers.wallbase.cc/rozne/wallpaper-709656.jpg'
p246
aS'http://wallpapers.wallbase.cc/high-resolution/wallpaper-711236.jpg'
p247
aS'http://wallpapers.wallbase.cc/high-resolution/wallpaper-888656.jpg'
p248
aS'http://wallpapers.wallbase.cc/high-resolution/wallpaper-2005049.jpg'
p249
aS'http://wallpapers.wallbase.cc/rozne/wallpaper-2331395.jpg'
p250
aS'http://wallpapers.wallbase.cc/rozne/wallpaper-312076.jpg'
p251
aS'http://wallpapers.wallbase.cc/rozne/wallpaper-3026272.jpg'
p252
aS'http://wallpapers.wallbase.cc/high-resolution/wallpaper-380636.jpg'
p253
aS'http://wallpapers.wallbase.cc/rozne/wallpaper-517317.jpg'
p254
aS'http://wallpapers.wallbase.cc/high-resolution/wallpaper-3029528.jpg'
p255
aS'http://wallpapers.wallbase.cc/manga-anime/wallpaper-15226.jpg'
p256
aS'http://wallpapers.wallbase.cc/high-resolution/wallpaper-156886.jpg'
p257
aS'http://wallpapers.wallbase.cc/high-resolution/wallpaper-888650.jpg'
p258
aS'http://wallpapers.wallbase.cc/rozne/wallpaper-1169719.jpg'
p259
aS'http://wallpapers.wallbase.cc/manga-anime/wallpaper-1898366.jpg'
p260
aS'http://wallpapers.wallbase.cc/rozne/wallpaper-2243511.jpg'
p261
aS'http://wallpapers.wallbase.cc/rozne/wallpaper-3029287.jpg'
p262
aS'http://wallpapers.wallbase.cc/high-resolution/wallpaper-162053.jpg'
p263
aS'http://wallpapers.wallbase.cc/high-resolution/wallpaper-489118.jpg'
p264
aS'http://wallpapers.wallbase.cc/rozne/wallpaper-2220852.jpg'
p265
aS'http://wallpapers.wallbase.cc/high-resolution/wallpaper-3031934.jpg'
p266
aS'http://wallpapers.wallbase.cc/rozne/wallpaper-1542917.jpg'
p267
aS'http://wallpapers.wallbase.cc/high-resolution/wallpaper-229678.jpg'
p268
aS'http://wallpapers.wallbase.cc/high-resolution/wallpaper-1909671.jpg'
p269
aS'http://wallpapers.wallbase.cc/high-resolution/wallpaper-2851905.jpg'
p270
aS'http://wallpapers.wallbase.cc/manga-anime/wallpaper-1529329.jpg'
p271
aS'http://wallpapers.wallbase.cc/rozne/wallpaper-1911591.jpg'
p272
aS'http://wallpapers.wallbase.cc/rozne/wallpaper-2756072.jpg'
p273
aS'http://wallpapers.wallbase.cc/high-resolution/wallpaper-3014558.jpg'
p274
aS'http://wallpapers.wallbase.cc/manga-anime/wallpaper-3032667.jpg'
p275
aS'http://wallpapers.wallbase.cc/rozne/wallpaper-662599.jpg'
p276
aS'http://wallpapers.wallbase.cc/high-resolution/wallpaper-888652.jpg'
p277
aS'http://wallpapers.wallbase.cc/manga-anime/wallpaper-1240025.jpg'
p278
aS'http://wallpapers.wallbase.cc/manga-anime/wallpaper-1470596.jpg'
p279
aS'http://wallpapers.wallbase.cc/rozne/wallpaper-2259573.jpg'
p280
aS'http://wallpapers.wallbase.cc/rozne/wallpaper-2518696.jpg'
p281
a(lp282
S'http://wallpapers.wallbase.cc/rozne/wallpaper-3033073.jpg'
p283
aS'http://wallpapers.wallbase.cc/high-resolution/wallpaper-3033049.jpg'
p284
aS'http://wallpapers.wallbase.cc/high-resolution/wallpaper-3033020.jpg'
p285
aS'http://wallpapers.wallbase.cc/high-resolution/wallpaper-3033013.jpg'
p286
aS'http://wallpapers.wallbase.cc/high-resolution/wallpaper-3033007.jpg'
p287
aS'http://wallpapers.wallbase.cc/manga-anime/wallpaper-3032988.jpg'
p288
aS'http://wallpapers.wallbase.cc/manga-anime/wallpaper-3032984.jpg'
p289
aS'http://wallpapers.wallbase.cc/rozne/wallpaper-3032972.jpg'
p290
aS'http://wallpapers.wallbase.cc/rozne/wallpaper-3032973.jpg'
p291
aS'http://wallpapers.wallbase.cc/rozne/wallpaper-3032976.jpg'
p292
aS'http://wallpapers.wallbase.cc/rozne/wallpaper-3032977.jpg'
p293
aS'http://wallpapers.wallbase.cc/high-resolution/wallpaper-3032966.jpg'
p294
aS'http://wallpapers.wallbase.cc/high-resolution/wallpaper-3032968.jpg'
p295
aS'http://wallpapers.wallbase.cc/high-resolution/wallpaper-3032969.jpg'
p296
aS'http://wallpapers.wallbase.cc/high-resolution/wallpaper-3032964.jpg'
p297
aS'http://wallpapers.wallbase.cc/high-resolution/wallpaper-3032958.jpg'
p298
aS'http://wallpapers.wallbase.cc/high-resolution/wallpaper-3032959.jpg'
p299
aS'http://wallpapers.wallbase.cc/high-resolution/wallpaper-3032960.jpg'
p300
aS'http://wallpapers.wallbase.cc/high-resolution/wallpaper-3032961.jpg'
p301
aS'http://wallpapers.wallbase.cc/high-resolution/wallpaper-3032962.jpg'
p302
aS'http://wallpapers.wallbase.cc/high-resolution/wallpaper-3032963.jpg'
p303
aS'http://wallpapers.wallbase.cc/high-resolution/wallpaper-3032956.jpg'
p304
aS'http://wallpapers.wallbase.cc/high-resolution/wallpaper-3032949.jpg'
p305
aS'http://wallpapers.wallbase.cc/high-resolution/wallpaper-3032950.jpg'
p306
aS'http://wallpapers.wallbase.cc/high-resolution/wallpaper-3032951.jpg'
p307
aS'http://wallpapers.wallbase.cc/high-resolution/wallpaper-3032952.jpg'
p308
aS'http://wallpapers.wallbase.cc/high-resolution/wallpaper-3032953.jpg'
p309
aS'http://wallpapers.wallbase.cc/high-resolution/wallpaper-3032954.jpg'
p310
aS'http://wallpapers.wallbase.cc/high-resolution/wallpaper-3032955.jpg'
p311
aS'http://wallpapers.wallbase.cc/high-resolution/wallpaper-3032944.jpg'
p312
aS'http://wallpapers.wallbase.cc/high-resolution/wallpaper-3032945.jpg'
p313
aS'http://wallpapers.wallbase.cc/high-resolution/wallpaper-3032947.jpg'
p314
aS'http://wallpapers.wallbase.cc/rozne/wallpaper-1640489.jpg'
p315
aS'http://wallpapers.wallbase.cc/high-resolution/wallpaper-2799176.jpg'
p316
aS'http://wallpapers.wallbase.cc/rozne/wallpaper-2091718.jpg'
p317
aS'http://wallpapers.wallbase.cc/rozne/wallpaper-2952096.jpg'
p318
aS'http://wallpapers.wallbase.cc/rozne/wallpaper-2079192.jpg'
p319
aS'http://wallpapers.wallbase.cc/rozne/wallpaper-2427436.jpg'
p320
aS'http://wallpapers.wallbase.cc/rozne/wallpaper-2633061.jpg'
p321
aS'http://wallpapers.wallbase.cc/rozne/wallpaper-2847971.jpg'
p322
aS'http://wallpapers.wallbase.cc/rozne/wallpaper-2741037.jpg'
p323
aS'http://wallpapers.wallbase.cc/rozne/wallpaper-1789649.jpg'
p324
aS'http://wallpapers.wallbase.cc/manga-anime/wallpaper-941024.jpg'
p325
aS'http://wallpapers.wallbase.cc/manga-anime/wallpaper-1063399.jpg'
p326
aS'http://wallpapers.wallbase.cc/rozne/wallpaper-1132818.jpg'
p327
aS'http://wallpapers.wallbase.cc/rozne/wallpaper-2017124.jpg'
p328
aS'http://wallpapers.wallbase.cc/rozne/wallpaper-2249818.jpg'
p329
aS'http://wallpapers.wallbase.cc/rozne/wallpaper-2281449.jpg'
p330
aS'http://wallpapers.wallbase.cc/rozne/wallpaper-2092235.jpg'
p331
aS'http://wallpapers.wallbase.cc/high-resolution/wallpaper-1733560.jpg'
p332
aS'http://wallpapers.wallbase.cc/rozne/wallpaper-1976533.jpg'
p333
aS'http://wallpapers.wallbase.cc/rozne/wallpaper-1731386.jpg'
p334
aS'http://wallpapers.wallbase.cc/rozne/wallpaper-3032017.jpg'
p335
aS'http://wallpapers.wallbase.cc/high-resolution/wallpaper-221987.jpg'
p336
aS'http://wallpapers.wallbase.cc/rozne/wallpaper-2272459.jpg'
p337
aS'http://wallpapers.wallbase.cc/rozne/wallpaper-1466868.jpg'
p338
aS'http://wallpapers.wallbase.cc/rozne/wallpaper-3032941.jpg'
p339
aS'http://wallpapers.wallbase.cc/rozne/wallpaper-3032669.jpg'
p340
aS'http://wallpapers.wallbase.cc/high-resolution/wallpaper-283555.jpg'
p341
aS'http://wallpapers.wallbase.cc/rozne/wallpaper-3032292.jpg'
p342
aS'http://wallpapers.wallbase.cc/rozne/wallpaper-2991538.jpg'
p343
aS'http://wallpapers.wallbase.cc/rozne/wallpaper-2983460.jpg'
p344
aS'http://wallpapers.wallbase.cc/rozne/wallpaper-888661.jpg'
p345
aS'http://wallpapers.wallbase.cc/rozne/wallpaper-1640489.jpg'
p346
aS'http://wallpapers.wallbase.cc/high-resolution/wallpaper-2799176.jpg'
p347
aS'http://wallpapers.wallbase.cc/rozne/wallpaper-2091718.jpg'
p348
aS'http://wallpapers.wallbase.cc/rozne/wallpaper-2952096.jpg'
p349
aS'http://wallpapers.wallbase.cc/rozne/wallpaper-2079192.jpg'
p350
aS'http://wallpapers.wallbase.cc/rozne/wallpaper-2427436.jpg'
p351
aS'http://wallpapers.wallbase.cc/rozne/wallpaper-2633061.jpg'
p352
aS'http://wallpapers.wallbase.cc/rozne/wallpaper-2847971.jpg'
p353
aS'http://wallpapers.wallbase.cc/rozne/wallpaper-2741037.jpg'
p354
aS'http://wallpapers.wallbase.cc/rozne/wallpaper-1789649.jpg'
p355
aS'http://wallpapers.wallbase.cc/manga-anime/wallpaper-941024.jpg'
p356
aS'http://wallpapers.wallbase.cc/manga-anime/wallpaper-1063399.jpg'
p357
aS'http://wallpapers.wallbase.cc/rozne/wallpaper-1132818.jpg'
p358
aS'http://wallpapers.wallbase.cc/rozne/wallpaper-2017124.jpg'
p359
aS'http://wallpapers.wallbase.cc/rozne/wallpaper-2249818.jpg'
p360
aS'http://wallpapers.wallbase.cc/rozne/wallpaper-2281449.jpg'
p361
aS'http://wallpapers.wallbase.cc/rozne/wallpaper-2092235.jpg'
p362
aS'http://wallpapers.wallbase.cc/high-resolution/wallpaper-1733560.jpg'
p363
aS'http://wallpapers.wallbase.cc/rozne/wallpaper-1976533.jpg'
p364
aS'http://wallpapers.wallbase.cc/rozne/wallpaper-1731386.jpg'
p365
aS'http://wallpapers.wallbase.cc/rozne/wallpaper-3032017.jpg'
p366
aS'http://wallpapers.wallbase.cc/high-resolution/wallpaper-221987.jpg'
p367
aS'http://wallpapers.wallbase.cc/rozne/wallpaper-2272459.jpg'
p368
aS'http://wallpapers.wallbase.cc/rozne/wallpaper-1466868.jpg'
p369
aS'http://wallpapers.wallbase.cc/rozne/wallpaper-3032941.jpg'
p370
aS'http://wallpapers.wallbase.cc/rozne/wallpaper-3032669.jpg'
p371
aS'http://wallpapers.wallbase.cc/high-resolution/wallpaper-283555.jpg'
p372
aS'http://wallpapers.wallbase.cc/rozne/wallpaper-3032292.jpg'
p373
aS'http://wallpapers.wallbase.cc/rozne/wallpaper-2991538.jpg'
p374
aS'http://wallpapers.wallbase.cc/rozne/wallpaper-2983460.jpg'
p375
aS'http://wallpapers.wallbase.cc/rozne/wallpaper-888661.jpg'
p376
aS'http://wallpapers.wallbase.cc/high-resolution/wallpaper-161642.jpg'
p377
aS'http://wallpapers.wallbase.cc/rozne/wallpaper-1776568.jpg'
p378
aS'http://wallpapers.wallbase.cc/rozne/wallpaper-2628966.jpg'
p379
aS'http://wallpapers.wallbase.cc/rozne/wallpaper-1419381.jpg'
p380
aS'http://wallpapers.wallbase.cc/rozne/wallpaper-2954404.jpg'
p381
aS'http://wallpapers.wallbase.cc/rozne/wallpaper-2850835.jpg'
p382
aS'http://wallpapers.wallbase.cc/rozne/wallpaper-2090950.jpg'
p383
aS'http://wallpapers.wallbase.cc/rozne/wallpaper-2643227.jpg'
p384
aS'http://wallpapers.wallbase.cc/rozne/wallpaper-2230428.jpg'
p385
aS'http://wallpapers.wallbase.cc/high-resolution/wallpaper-3032857.jpg'
p386
aS'http://wallpapers.wallbase.cc/rozne/wallpaper-2365673.jpg'
p387
aS'http://wallpapers.wallbase.cc/rozne/wallpaper-2649517.jpg'
p388
aS'http://wallpapers.wallbase.cc/rozne/wallpaper-2844491.jpg'
p389
aS'http://wallpapers.wallbase.cc/rozne/wallpaper-1487217.jpg'
p390
aS'http://wallpapers.wallbase.cc/rozne/wallpaper-2938662.jpg'
p391
aS'http://wallpapers.wallbase.cc/rozne/wallpaper-1640486.jpg'
p392
aS'http://wallpapers.wallbase.cc/rozne/wallpaper-2090952.jpg'
p393
aS'http://wallpapers.wallbase.cc/rozne/wallpaper-2702093.jpg'
p394
aS'http://wallpapers.wallbase.cc/rozne/wallpaper-1569597.jpg'
p395
aS'http://wallpapers.wallbase.cc/rozne/wallpaper-625609.jpg'
p396
aS'http://wallpapers.wallbase.cc/high-resolution/wallpaper-2827253.jpg'
p397
aS'http://wallpapers.wallbase.cc/rozne/wallpaper-1605427.jpg'
p398
aS'http://wallpapers.wallbase.cc/rozne/wallpaper-1877098.jpg'
p399
aS'http://wallpapers.wallbase.cc/rozne/wallpaper-598071.jpg'
p400
aS'http://wallpapers.wallbase.cc/rozne/wallpaper-2416641.jpg'
p401
aS'http://wallpapers.wallbase.cc/rozne/wallpaper-2171243.jpg'
p402
aS'http://wallpapers.wallbase.cc/rozne/wallpaper-2729184.jpg'
p403
aS'http://wallpapers.wallbase.cc/rozne/wallpaper-3026632.jpg'
p404
aS'http://wallpapers.wallbase.cc/high-resolution/wallpaper-1009031.jpg'
p405
aS'http://wallpapers.wallbase.cc/rozne/wallpaper-411897.jpg'
p406
aS'http://wallpapers.wallbase.cc/rozne/wallpaper-1569594.jpg'
p407
aS'http://wallpapers.wallbase.cc/rozne/wallpaper-3032686.jpg'
p408
aS'http://wallpapers.wallbase.cc/rozne/wallpaper-75905.jpg'
p409
aS'http://wallpapers.wallbase.cc/high-resolution/wallpaper-1377168.jpg'
p410
aS'http://wallpapers.wallbase.cc/manga-anime/wallpaper-2802617.jpg'
p411
aS'http://wallpapers.wallbase.cc/rozne/wallpaper-740236.jpg'
p412
aS'http://wallpapers.wallbase.cc/rozne/wallpaper-2850452.jpg'
p413
aS'http://wallpapers.wallbase.cc/rozne/wallpaper-2761116.jpg'
p414
aS'http://wallpapers.wallbase.cc/rozne/wallpaper-579074.jpg'
p415
aS'http://wallpapers.wallbase.cc/high-resolution/wallpaper-875821.jpg'
p416
aS'http://wallpapers.wallbase.cc/rozne/wallpaper-1566158.jpg'
p417
aS'http://wallpapers.wallbase.cc/rozne/wallpaper-87250.jpg'
p418
aS'http://wallpapers.wallbase.cc/rozne/wallpaper-3032583.jpg'
p419
aS'http://wallpapers.wallbase.cc/high-resolution/wallpaper-3032940.jpg'
p420
aS'http://wallpapers.wallbase.cc/rozne/wallpaper-2902655.jpg'
p421
aS'http://wallpapers.wallbase.cc/high-resolution/wallpaper-3032654.jpg'
p422
aS'http://wallpapers.wallbase.cc/rozne/wallpaper-3031724.jpg'
p423
aS'http://wallpapers.wallbase.cc/rozne/wallpaper-617183.jpg'
p424
aS'http://wallpapers.wallbase.cc/rozne/wallpaper-183407.jpg'
p425
aS'http://wallpapers.wallbase.cc/rozne/wallpaper-233007.jpg'
p426
aS'http://wallpapers.wallbase.cc/rozne/wallpaper-1149922.jpg'
p427
aS'http://wallpapers.wallbase.cc/rozne/wallpaper-1736321.jpg'
p428
aS'http://wallpapers.wallbase.cc/high-resolution/wallpaper-231552.jpg'
p429
aS'http://wallpapers.wallbase.cc/rozne/wallpaper-2598023.jpg'
p430
aS'http://wallpapers.wallbase.cc/rozne/wallpaper-2944920.jpg'
p431
aS'http://wallpapers.wallbase.cc/high-resolution/wallpaper-170410.jpg'
p432
aS'http://wallpapers.wallbase.cc/high-resolution/wallpaper-2941095.jpg'
p433
aS'http://wallpapers.wallbase.cc/rozne/wallpaper-1569595.jpg'
p434
aS'http://wallpapers.wallbase.cc/high-resolution/wallpaper-1511832.jpg'
p435
aS'http://wallpapers.wallbase.cc/rozne/wallpaper-2931513.jpg'
p436
aS'http://wallpapers.wallbase.cc/high-resolution/wallpaper-10772.jpg'
p437
aS'http://wallpapers.wallbase.cc/rozne/wallpaper-551092.jpg'
p438
aS'http://wallpapers.wallbase.cc/rozne/wallpaper-1436835.jpg'
p439
aS'http://wallpapers.wallbase.cc/rozne/wallpaper-2902656.jpg'
p440
aS'http://wallpapers.wallbase.cc/high-resolution/wallpaper-609080.jpg'
p441
aS'http://wallpapers.wallbase.cc/manga-anime/wallpaper-1873576.jpg'
p442
aS'http://wallpapers.wallbase.cc/rozne/wallpaper-1933710.jpg'
p443
aS'http://wallpapers.wallbase.cc/rozne/wallpaper-2269773.jpg'
p444
aS'http://wallpapers.wallbase.cc/manga-anime/wallpaper-16823.jpg'
p445
aS'http://wallpapers.wallbase.cc/rozne/wallpaper-116648.jpg'
p446
aS'http://wallpapers.wallbase.cc/high-resolution/wallpaper-2274805.jpg'
p447
aS'http://wallpapers.wallbase.cc/rozne/wallpaper-684036.jpg'
p448
aS'http://wallpapers.wallbase.cc/rozne/wallpaper-129580.jpg'
p449
aS'http://wallpapers.wallbase.cc/rozne/wallpaper-2581220.jpg'
p450
aS'http://wallpapers.wallbase.cc/rozne/wallpaper-692369.jpg'
p451
aS'http://wallpapers.wallbase.cc/rozne/wallpaper-2612918.jpg'
p452
aS'http://wallpapers.wallbase.cc/manga-anime/wallpaper-1535346.jpg'
p453
aS'http://wallpapers.wallbase.cc/rozne/wallpaper-1735004.jpg'
p454
aS'http://wallpapers.wallbase.cc/high-resolution/wallpaper-2085835.jpg'
p455
aS'http://wallpapers.wallbase.cc/rozne/wallpaper-931589.jpg'
p456
aS'http://wallpapers.wallbase.cc/high-resolution/wallpaper-716625.jpg'
p457
aS'http://wallpapers.wallbase.cc/rozne/wallpaper-2469479.jpg'
p458
aS'http://wallpapers.wallbase.cc/rozne/wallpaper-1987461.jpg'
p459
aS'http://wallpapers.wallbase.cc/rozne/wallpaper-2249358.jpg'
p460
aS'http://wallpapers.wallbase.cc/rozne/wallpaper-2832245.jpg'
p461
aS'http://wallpapers.wallbase.cc/rozne/wallpaper-3027374.jpg'
p462
aS'http://wallpapers.wallbase.cc/rozne/wallpaper-2950574.jpg'
p463
aS'http://wallpapers.wallbase.cc/high-resolution/wallpaper-474180.jpg'
p464
aS'http://wallpapers.wallbase.cc/rozne/wallpaper-368846.jpg'
p465
aS'http://wallpapers.wallbase.cc/high-resolution/wallpaper-168895.jpg'
p466
aS'http://wallpapers.wallbase.cc/high-resolution/wallpaper-258327.jpg'
p467
aS'http://wallpapers.wallbase.cc/rozne/wallpaper-3032942.jpg'
p468
aS'http://wallpapers.wallbase.cc/rozne/wallpaper-1640489.jpg'
p469
aS'http://wallpapers.wallbase.cc/high-resolution/wallpaper-2799176.jpg'
p470
aS'http://wallpapers.wallbase.cc/rozne/wallpaper-2091718.jpg'
p471
aS'http://wallpapers.wallbase.cc/rozne/wallpaper-2952096.jpg'
p472
aS'http://wallpapers.wallbase.cc/rozne/wallpaper-2079192.jpg'
p473
aS'http://wallpapers.wallbase.cc/rozne/wallpaper-2427436.jpg'
p474
aS'http://wallpapers.wallbase.cc/rozne/wallpaper-2633061.jpg'
p475
aS'http://wallpapers.wallbase.cc/rozne/wallpaper-2847971.jpg'
p476
aS'http://wallpapers.wallbase.cc/rozne/wallpaper-2741037.jpg'
p477
aS'http://wallpapers.wallbase.cc/rozne/wallpaper-1789649.jpg'
p478
aS'http://wallpapers.wallbase.cc/manga-anime/wallpaper-941024.jpg'
p479
aS'http://wallpapers.wallbase.cc/manga-anime/wallpaper-1063399.jpg'
p480
aS'http://wallpapers.wallbase.cc/rozne/wallpaper-1132818.jpg'
p481
aS'http://wallpapers.wallbase.cc/rozne/wallpaper-2017124.jpg'
p482
aS'http://wallpapers.wallbase.cc/rozne/wallpaper-2249818.jpg'
p483
aS'http://wallpapers.wallbase.cc/rozne/wallpaper-2281449.jpg'
p484
aS'http://wallpapers.wallbase.cc/rozne/wallpaper-2092235.jpg'
p485
aS'http://wallpapers.wallbase.cc/high-resolution/wallpaper-1733560.jpg'
p486
aS'http://wallpapers.wallbase.cc/rozne/wallpaper-1976533.jpg'
p487
aS'http://wallpapers.wallbase.cc/rozne/wallpaper-1731386.jpg'
p488
aS'http://wallpapers.wallbase.cc/rozne/wallpaper-3032017.jpg'
p489
aS'http://wallpapers.wallbase.cc/high-resolution/wallpaper-221987.jpg'
p490
aS'http://wallpapers.wallbase.cc/rozne/wallpaper-2272459.jpg'
p491
aS'http://wallpapers.wallbase.cc/rozne/wallpaper-1466868.jpg'
p492
aS'http://wallpapers.wallbase.cc/rozne/wallpaper-3032941.jpg'
p493
aS'http://wallpapers.wallbase.cc/rozne/wallpaper-3032669.jpg'
p494
aS'http://wallpapers.wallbase.cc/high-resolution/wallpaper-283555.jpg'
p495
aS'http://wallpapers.wallbase.cc/rozne/wallpaper-3032292.jpg'
p496
aS'http://wallpapers.wallbase.cc/rozne/wallpaper-2991538.jpg'
p497
at.